; Function Attrs: nounwind sspstrong uwtable
define internal noundef i32 @separate_symbol(i64 noundef %0, i64 noundef %1, i64 noundef %2) #0 {
  %4 = inttoptr i64 %2 to ptr
  %5 = and i64 %0, 255
  %6 = icmp eq i64 %5, 12
  br i1 %6, label %RB_SYMBOL_P.exit.thread, label %7

7:                                                ; preds = %3
  %8 = icmp eq i64 %0, 0
  %9 = and i64 %0, 7
  %10 = icmp ne i64 %9, 0
  %11 = or i1 %8, %10
  br i1 %11, label %RB_SYMBOL_P.exit.thread8, label %RB_SYMBOL_P.exit

RB_SYMBOL_P.exit.thread8:                         ; preds = %7
  %12 = getelementptr i8, ptr %4, i64 8
  br label %18

RB_SYMBOL_P.exit:                                 ; preds = %7
  %13 = inttoptr i64 %0 to ptr
  %14 = load i64, ptr %13, align 8, !tbaa !35
  %.fr10 = freeze i64 %14
  %15 = and i64 %.fr10, 31
  %16 = icmp eq i64 %15, 20
  %17 = getelementptr i8, ptr %4, i64 8
  br i1 %16, label %RB_SYMBOL_P.exit.thread, label %18

RB_SYMBOL_P.exit.thread:                          ; preds = %3, %RB_SYMBOL_P.exit
  br label %18

18:                                               ; preds = %RB_SYMBOL_P.exit.thread8, %RB_SYMBOL_P.exit, %RB_SYMBOL_P.exit.thread
  %19 = phi ptr [ %4, %RB_SYMBOL_P.exit.thread ], [ %17, %RB_SYMBOL_P.exit ], [ %12, %RB_SYMBOL_P.exit.thread8 ]
  %20 = load i64, ptr %19, align 8, !tbaa !29
  %.not = icmp eq i64 %20, 0
  br i1 %.not, label %21, label %23

21:                                               ; preds = %18
  %22 = tail call i64 @rb_hash_new() #19
  store i64 %22, ptr %19, align 8, !tbaa !29
  br label %23

23:                                               ; preds = %21, %18
  %24 = phi i64 [ %22, %21 ], [ %20, %18 ]
  %25 = tail call i64 @rb_hash_aset(i64 noundef %24, i64 noundef %0, i64 noundef %1) #19
  ret i32 0
}